target datalayout = "e-m:e-p270:32:32-p271:32:32-p272:64:64-i64:64-i128:128-f80:128-n8:16:32:64-S128"
target triple = "x86_64-pc-linux-gnu"

%struct.optstruct = type { ptr, ptr, ptr, i64, i32, i32, i32, i32, ptr, ptr, ptr }
%struct.text_norm_state = type { ptr, i64, i64, i32 }
%struct.cl_fmap = type { ptr, ptr, ptr, i64, i64, i64, i64, i8, i8, i8, i64, i64, i64, i64, ptr, ptr, ptr, ptr, ptr, ptr, ptr, i8, [16 x i8], i8, [20 x i8], i8, [32 x i8], ptr, ptr }

@.str.21 = private unnamed_addr constant [16 x i8] c"ascii-normalise\00", align 1
@.str.143 = private unnamed_addr constant [31 x i8] c"asciinorm: Can't open file %s\0A\00", align 1
@.str.144 = private unnamed_addr constant [34 x i8] c"asciinorm: Can't allocate memory\0A\00", align 1
@.str.145 = private unnamed_addr constant [27 x i8] c"fmap: Could not map fd %d\0A\00", align 1
@.str.146 = private unnamed_addr constant [39 x i8] c"asciinorm: File size of %zu too large\0A\00", align 1
@.str.147 = private unnamed_addr constant [18 x i8] c"./normalised_text\00", align 1
@.str.148 = private unnamed_addr constant [46 x i8] c"asciinorm: Can't open file ./normalised_text\0A\00", align 1
@.str.149 = private unnamed_addr constant [50 x i8] c"asciinorm: Can't write to file ./normalised_text\0A\00", align 1

; Function Attrs: nounwind uwtable
define internal void @funmap(ptr noundef %0) #0 {
  %2 = alloca ptr, align 8
  store ptr %0, ptr %2, align 8
  %3 = load ptr, ptr %2, align 8
  %4 = getelementptr inbounds %struct.cl_fmap, ptr %3, i32 0, i32 14
  %5 = load ptr, ptr %4, align 8
  %6 = load ptr, ptr %2, align 8
  call void %5(ptr noundef %6)
  ret void
}

; Function Attrs: nounwind uwtable
define internal i32 @asciinorm(ptr noundef %0) #0 {
  %2 = alloca i32, align 4
  %3 = alloca ptr, align 8
  %4 = alloca ptr, align 8
  %5 = alloca ptr, align 8
  %6 = alloca %struct.text_norm_state, align 8
  %7 = alloca i64, align 8
  %8 = alloca ptr, align 8
  %9 = alloca i32, align 4
  %10 = alloca i32, align 4
  %11 = alloca i64, align 8
  store ptr %0, ptr %3, align 8
  %12 = load ptr, ptr %3, align 8
  %13 = call ptr @optget(ptr noundef %12, ptr noundef @.str.21)
  %14 = getelementptr inbounds %struct.optstruct, ptr %13, i32 0, i32 2
  %15 = load ptr, ptr %14, align 8
  store ptr %15, ptr %4, align 8
  %16 = load ptr, ptr %4, align 8
  %17 = call i32 (ptr, i32, ...) @open(ptr noundef %16, i32 noundef 0)
  store i32 %17, ptr %9, align 4
  %18 = load i32, ptr %9, align 4
  %19 = icmp eq i32 %18, -1
  br i1 %19, label %20, label %22

20:                                               ; preds = %1
  %21 = load ptr, ptr %4, align 8
  call void (i32, ptr, ...) @mprintf(i32 noundef 5, ptr noundef @.str.143, ptr noundef %21)
  store i32 -1, ptr %2, align 4
  br label %100

22:                                               ; preds = %1
  %23 = call noalias ptr @malloc(i64 noundef 131072) #13
  store ptr %23, ptr %5, align 8
  %24 = icmp ne ptr %23, null
  br i1 %24, label %28, label %25

25:                                               ; preds = %22
  call void (i32, ptr, ...) @mprintf(i32 noundef 5, ptr noundef @.str.144)
  %26 = load i32, ptr %9, align 4
  %27 = call i32 @close(i32 noundef %26)
  store i32 -1, ptr %2, align 4
  br label %100

28:                                               ; preds = %22
  %29 = load i32, ptr %9, align 4
  %30 = load ptr, ptr %4, align 8
  %31 = call ptr @fmap(i32 noundef %29, i64 noundef 0, i64 noundef 0, ptr noundef %30)
  store ptr %31, ptr %8, align 8
  %32 = icmp ne ptr %31, null
  br i1 %32, label %38, label %33

33:                                               ; preds = %28
  %34 = load i32, ptr %9, align 4
  call void (i32, ptr, ...) @mprintf(i32 noundef 5, ptr noundef @.str.145, i32 noundef %34)
  %35 = load i32, ptr %9, align 4
  %36 = call i32 @close(i32 noundef %35)
  %37 = load ptr, ptr %5, align 8
  call void @free(ptr noundef %37) #11
  store i32 -1, ptr %2, align 4
  br label %100

38:                                               ; preds = %28
  %39 = load ptr, ptr %8, align 8
  %40 = getelementptr inbounds %struct.cl_fmap, ptr %39, i32 0, i32 13
  %41 = load i64, ptr %40, align 8
  %42 = icmp ugt i64 %41, 20000000
  br i1 %42, label %43, label %51

43:                                               ; preds = %38
  %44 = load ptr, ptr %8, align 8
  %45 = getelementptr inbounds %struct.cl_fmap, ptr %44, i32 0, i32 13
  %46 = load i64, ptr %45, align 8
  call void (i32, ptr, ...) @mprintf(i32 noundef 5, ptr noundef @.str.146, i64 noundef %46)
  %47 = load i32, ptr %9, align 4
  %48 = call i32 @close(i32 noundef %47)
  %49 = load ptr, ptr %5, align 8
  call void @free(ptr noundef %49) #11
  %50 = load ptr, ptr %8, align 8
  call void @funmap(ptr noundef %50)
  store i32 -1, ptr %2, align 4
  br label %100

51:                                               ; preds = %38
  %52 = call i32 (ptr, i32, ...) @open(ptr noundef @.str.147, i32 noundef 577, i32 noundef 384)
  store i32 %52, ptr %10, align 4
  %53 = load i32, ptr %10, align 4
  %54 = icmp eq i32 %53, -1
  br i1 %54, label %55, label %60

55:                                               ; preds = %51
  call void (i32, ptr, ...) @mprintf(i32 noundef 5, ptr noundef @.str.148)
  %56 = load i32, ptr %9, align 4
  %57 = call i32 @close(i32 noundef %56)
  %58 = load ptr, ptr %5, align 8
  call void @free(ptr noundef %58) #11
  %59 = load ptr, ptr %8, align 8
  call void @funmap(ptr noundef %59)
  store i32 -1, ptr %2, align 4
  br label %100

60:                                               ; preds = %51
  %61 = load ptr, ptr %5, align 8
  %62 = call i32 @text_normalize_init(ptr noundef %6, ptr noundef %61, i64 noundef 131072)
  store i64 0, ptr %7, align 8
  br label %63

63:                                               ; preds = %92, %60
  %64 = load i64, ptr %7, align 8
  %65 = load ptr, ptr %8, align 8
  %66 = getelementptr inbounds %struct.cl_fmap, ptr %65, i32 0, i32 13
  %67 = load i64, ptr %66, align 8
  %68 = icmp ne i64 %64, %67
  br i1 %68, label %69, label %93

69:                                               ; preds = %63
  %70 = load ptr, ptr %8, align 8
  %71 = load i64, ptr %7, align 8
  %72 = call i64 @text_normalize_map(ptr noundef %6, ptr noundef %70, i64 noundef %71)
  store i64 %72, ptr %11, align 8
  %73 = icmp ne i64 %72, 0
  br i1 %73, label %75, label %74

74:                                               ; preds = %69
  br label %93

75:                                               ; preds = %69
  %76 = load i64, ptr %11, align 8
  %77 = load i64, ptr %7, align 8
  %78 = add i64 %77, %76
  store i64 %78, ptr %7, align 8
  %79 = load i32, ptr %10, align 4
  %80 = load ptr, ptr %5, align 8
  %81 = getelementptr inbounds %struct.text_norm_state, ptr %6, i32 0, i32 2
  %82 = load i64, ptr %81, align 8
  %83 = call i64 @write(i32 noundef %79, ptr noundef %80, i64 noundef %82)
  %84 = icmp eq i64 %83, -1
  br i1 %84, label %85, label %92

85:                                               ; preds = %75
  call void (i32, ptr, ...) @mprintf(i32 noundef 5, ptr noundef @.str.149)
  %86 = load i32, ptr %9, align 4
  %87 = call i32 @close(i32 noundef %86)
  %88 = load i32, ptr %10, align 4
  %89 = call i32 @close(i32 noundef %88)
  %90 = load ptr, ptr %5, align 8
  call void @free(ptr noundef %90) #11
  %91 = load ptr, ptr %8, align 8
  call void @funmap(ptr noundef %91)
  store i32 -1, ptr %2, align 4
  br label %100

92:                                               ; preds = %75
  call void @text_normalize_reset(ptr noundef %6)
  br label %63

93:                                               ; preds = %74, %63
  %94 = load i32, ptr %9, align 4
  %95 = call i32 @close(i32 noundef %94)
  %96 = load i32, ptr %10, align 4
  %97 = call i32 @close(i32 noundef %96)
  %98 = load ptr, ptr %5, align 8
  call void @free(ptr noundef %98) #11
  %99 = load ptr, ptr %8, align 8
  call void @funmap(ptr noundef %99)
  store i32 0, ptr %2, align 4
  br label %100

100:                                              ; preds = %93, %85, %55, %43, %33, %25, %20
  %101 = load i32, ptr %2, align 4
  ret i32 %101
}