; Function Attrs: nounwind uwtable
define internal fastcc noundef i32 @asciinorm(ptr noundef %0) unnamed_addr #0 {
  %2 = alloca %struct.text_norm_state, align 8
  %3 = tail call ptr @optget(ptr noundef %0, ptr noundef nonnull @.str.21) #25
  %4 = getelementptr inbounds i8, ptr %3, i64 16
  %5 = load ptr, ptr %4, align 8
  %6 = tail call i32 (ptr, i32, ...) @open(ptr noundef %5, i32 noundef 0) #25
  %7 = icmp eq i32 %6, -1
  br i1 %7, label %8, label %9

8:                                                ; preds = %1
  tail call void (i32, ptr, ...) @mprintf(i32 noundef 5, ptr noundef nonnull @.str.143, ptr noundef %5) #25
  br label %54

9:                                                ; preds = %1
  %10 = tail call noalias dereferenceable_or_null(131072) ptr @malloc(i64 noundef 131072) #30
  %.not = icmp eq ptr %10, null
  br i1 %.not, label %11, label %13

11:                                               ; preds = %9
  tail call void (i32, ptr, ...) @mprintf(i32 noundef 5, ptr noundef nonnull @.str.144) #25
  %12 = tail call i32 @close(i32 noundef %6) #25
  br label %54

13:                                               ; preds = %9
  %14 = tail call ptr @fmap(i32 noundef %6, i64 noundef 0, i64 noundef 0, ptr noundef %5) #25
  %.not43 = icmp eq ptr %14, null
  br i1 %.not43, label %15, label %17

15:                                               ; preds = %13
  tail call void (i32, ptr, ...) @mprintf(i32 noundef 5, ptr noundef nonnull @.str.145, i32 noundef %6) #25
  %16 = tail call i32 @close(i32 noundef %6) #25
  tail call void @free(ptr noundef nonnull %10) #25
  br label %54

17:                                               ; preds = %13
  %18 = getelementptr inbounds i8, ptr %14, i64 88
  %19 = load i64, ptr %18, align 8
  %20 = icmp ugt i64 %19, 20000000
  br i1 %20, label %21, label %25

21:                                               ; preds = %17
  tail call void (i32, ptr, ...) @mprintf(i32 noundef 5, ptr noundef nonnull @.str.146, i64 noundef %19) #25
  %22 = tail call i32 @close(i32 noundef %6) #25
  tail call void @free(ptr noundef nonnull %10) #25
  %23 = getelementptr inbounds i8, ptr %14, i64 96
  %24 = load ptr, ptr %23, align 8
  tail call void %24(ptr noundef nonnull %14) #25
  br label %54

25:                                               ; preds = %17
  %26 = tail call i32 (ptr, i32, ...) @open(ptr noundef nonnull @.str.147, i32 noundef 577, i32 noundef 384) #25
  %27 = icmp eq i32 %26, -1
  br i1 %27, label %28, label %32

28:                                               ; preds = %25
  tail call void (i32, ptr, ...) @mprintf(i32 noundef 5, ptr noundef nonnull @.str.148) #25
  %29 = tail call i32 @close(i32 noundef %6) #25
  tail call void @free(ptr noundef nonnull %10) #25
  %30 = getelementptr inbounds i8, ptr %14, i64 96
  %31 = load ptr, ptr %30, align 8
  tail call void %31(ptr noundef nonnull %14) #25
  br label %54

32:                                               ; preds = %25
  %33 = call i32 @text_normalize_init(ptr noundef nonnull %2, ptr noundef nonnull %10, i64 noundef 131072) #25
  %34 = load i64, ptr %18, align 8
  %.not4446 = icmp eq i64 %34, 0
  br i1 %.not4446, label %._crit_edge, label %.lr.ph

.lr.ph:                                           ; preds = %32
  %35 = getelementptr inbounds i8, ptr %2, i64 16
  br label %36

36:                                               ; preds = %.lr.ph, %47
  %.03647 = phi i64 [ 0, %.lr.ph ], [ %48, %47 ]
  %37 = call i64 @text_normalize_map(ptr noundef nonnull %2, ptr noundef nonnull %14, i64 noundef %.03647) #25
  %.not45 = icmp eq i64 %37, 0
  br i1 %.not45, label %._crit_edge, label %38

38:                                               ; preds = %36
  %39 = load i64, ptr %35, align 8
  %40 = call i64 @write(i32 noundef %26, ptr noundef nonnull %10, i64 noundef %39) #25
  %41 = icmp eq i64 %40, -1
  br i1 %41, label %42, label %47

42:                                               ; preds = %38
  call void (i32, ptr, ...) @mprintf(i32 noundef 5, ptr noundef nonnull @.str.149) #25
  %43 = call i32 @close(i32 noundef %6) #25
  %44 = call i32 @close(i32 noundef %26) #25
  call void @free(ptr noundef %10) #25
  %45 = getelementptr inbounds i8, ptr %14, i64 96
  %46 = load ptr, ptr %45, align 8
  call void %46(ptr noundef nonnull %14) #25
  br label %54

47:                                               ; preds = %38
  %48 = add i64 %37, %.03647
  call void @text_normalize_reset(ptr noundef nonnull %2) #25
  %49 = load i64, ptr %18, align 8
  %.not44 = icmp eq i64 %48, %49
  br i1 %.not44, label %._crit_edge, label %36

._crit_edge:                                      ; preds = %47, %36, %32
  %50 = call i32 @close(i32 noundef %6) #25
  %51 = call i32 @close(i32 noundef %26) #25
  call void @free(ptr noundef %10) #25
  %52 = getelementptr inbounds i8, ptr %14, i64 96
  %53 = load ptr, ptr %52, align 8
  call void %53(ptr noundef nonnull %14) #25
  br label %54

54:                                               ; preds = %._crit_edge, %42, %28, %21, %15, %11, %8
  %.0 = phi i32 [ -1, %8 ], [ -1, %21 ], [ -1, %28 ], [ -1, %42 ], [ 0, %._crit_edge ], [ -1, %15 ], [ -1, %11 ]
  ret i32 %.0
}